#include <math.h>
#include <stdio.h>
#include <stdlib.h>
#include <string.h>


main()
{
      int i,j,k,m,n;
      int sushu(int a);
      scanf("%d",&n);
      if(n<=4)
      printf("empty");
      for(i=3;i<=n;i=i+2)
      {
                       if(sushu(i)==1&&sushu(i+2)&&i+2<=n)
                       printf("%d %d\n",i,i+2);
                       }
                       
                       
      
      }
      int sushu(int a)
{
    int i,k;
    k=sqrt(a);
    for(i=2;i<=k;i++)
    {
                     if(a%i==0)
                     {
                               
                               return(0);
                               break;
                     }
                     
                     }
if(i==k+1)
                     return(1);
}
